; Function Attrs: mustprogress nofree norecurse nosync nounwind willreturn memory(argmem: write) uwtable
define hidden void @_ZN4cvc58internal6theory5arith6linear10UpdateInfoC2Ev(ptr noundef nonnull writeonly align 8 captures(none) dereferenceable(204) initializes((0, 8), (72, 73), (80, 81), (88, 89), (96, 97), (168, 169), (184, 185), (192, 204)) %0) unnamed_addr #4 align 2 {
  %2 = load i32, ptr @_ZN4cvc58internal6theory5arith6linear17ARITHVAR_SENTINELE, align 4, !tbaa !10
  store i32 %2, ptr %0, align 8, !tbaa !12
  %3 = getelementptr inbounds nuw i8, ptr %0, i64 4
  store i32 0, ptr %3, align 4, !tbaa !29
  %4 = getelementptr inbounds nuw i8, ptr %0, i64 72
  store i8 0, ptr %4, align 8, !tbaa !30
  %5 = getelementptr inbounds nuw i8, ptr %0, i64 80
  store i8 0, ptr %5, align 8, !tbaa !31
  %6 = getelementptr inbounds nuw i8, ptr %0, i64 88
  store i8 0, ptr %6, align 8, !tbaa !3
  %7 = getelementptr inbounds nuw i8, ptr %0, i64 96
  store i8 0, ptr %7, align 8, !tbaa !3
  %8 = getelementptr inbounds nuw i8, ptr %0, i64 168
  store i8 0, ptr %8, align 8, !tbaa !30
  %9 = getelementptr inbounds nuw i8, ptr %0, i64 184
  store i8 0, ptr %9, align 8, !tbaa !32
  %10 = getelementptr inbounds nuw i8, ptr %0, i64 192
  store ptr null, ptr %10, align 8, !tbaa !33
  %11 = getelementptr inbounds nuw i8, ptr %0, i64 200
  store i32 7, ptr %11, align 8, !tbaa !34
  ret void
}